; Function Attrs: nounwind uwtable
define void @Bac_NtkCreateOrConnectFanin(ptr noundef %0, ptr noundef captures(none) %1, i32 noundef %2) local_unnamed_addr #0 {
  %.not = icmp eq ptr %0, null
  br i1 %.not, label %.critedge, label %4

4:                                                ; preds = %3
  %5 = getelementptr i8, ptr %0, i64 20
  %.val.i = load i32, ptr %5, align 4
  %6 = and i32 %.val.i, 15
  switch i32 %6, label %Abc_NodeIsSeriousGate.exit32.thread [
    i32 7, label %7
    i32 2, label %Abc_NodeIsSeriousGate.exit32.thread57
  ]

7:                                                ; preds = %4
  %8 = getelementptr i8, ptr %0, i64 28
  %.val4.i = load i32, ptr %8, align 4
  %9 = icmp sgt i32 %.val4.i, 0
  br i1 %9, label %10, label %Abc_NodeIsSeriousGate.exit32.thread

10:                                               ; preds = %7
  %.pre = load ptr, ptr %0, align 8
  %11 = getelementptr i8, ptr %.pre, i64 4
  %.val6.i.i = load i32, ptr %11, align 4
  %.not.i.not.i = icmp eq i32 %.val6.i.i, 4
  %12 = icmp eq i32 %.val4.i, 1
  %or.cond.i = and i1 %12, %.not.i.not.i
  br i1 %or.cond.i, label %Abc_NodeIsSeriousGate.exit, label %Abc_NodeIsSeriousGate.exit.thread34

Abc_NodeIsSeriousGate.exit:                       ; preds = %10
  %13 = getelementptr inbounds nuw i8, ptr %0, i64 56
  %14 = load ptr, ptr %13, align 8
  %.not60 = icmp eq ptr %14, null
  br i1 %.not60, label %Abc_ObjIsBarBuf.exit, label %Abc_NodeIsSeriousGate.exit.thread34

Abc_NodeIsSeriousGate.exit.thread34:              ; preds = %10, %Abc_NodeIsSeriousGate.exit
  %15 = getelementptr inbounds nuw i8, ptr %0, i64 64
  %16 = load i32, ptr %15, align 8
  br label %41

Abc_ObjIsBarBuf.exit:                             ; preds = %Abc_NodeIsSeriousGate.exit
  %17 = getelementptr inbounds nuw i8, ptr %0, i64 56
  %18 = load ptr, ptr %17, align 8
  %.not61 = icmp eq ptr %18, null
  br i1 %.not61, label %Abc_NodeIsSeriousGate.exit32.thread57, label %Abc_NodeIsSeriousGate.exit32

Abc_NodeIsSeriousGate.exit32:                     ; preds = %Abc_ObjIsBarBuf.exit
  %19 = getelementptr inbounds nuw i8, ptr %0, i64 56
  %20 = load ptr, ptr %19, align 8
  %.not62 = icmp eq ptr %20, null
  br i1 %.not62, label %Abc_NodeIsSeriousGate.exit32.thread, label %Abc_NodeIsSeriousGate.exit32.thread57

Abc_NodeIsSeriousGate.exit32.thread57:            ; preds = %4, %Abc_NodeIsSeriousGate.exit32, %Abc_ObjIsBarBuf.exit
  %21 = getelementptr inbounds nuw i8, ptr %0, i64 64
  %22 = load i32, ptr %21, align 8
  %23 = tail call fastcc i32 @Bac_ObjAlloc(ptr noundef %1, i32 noundef 3, i32 noundef %22)
  %24 = load ptr, ptr %1, align 8
  %25 = getelementptr inbounds nuw i8, ptr %24, i64 152
  %26 = load i32, ptr %25, align 8
  %27 = tail call fastcc i32 @Bac_ObjAlloc(ptr noundef nonnull %1, i32 noundef 60, i32 noundef %26)
  %28 = tail call fastcc i32 @Bac_ObjAlloc(ptr noundef nonnull %1, i32 noundef 4, i32 noundef -1)
  br label %41

.critedge:                                        ; preds = %3
  %29 = load ptr, ptr %1, align 8
  br label %34

Abc_NodeIsSeriousGate.exit32.thread:              ; preds = %7, %4, %Abc_NodeIsSeriousGate.exit32
  %30 = load ptr, ptr %1, align 8
  %31 = tail call i32 @Abc_NodeIsConst1(ptr noundef nonnull %0) #17
  %32 = icmp ne i32 %31, 0
  %33 = zext i1 %32 to i64
  br label %34

34:                                               ; preds = %.critedge, %Abc_NodeIsSeriousGate.exit32.thread
  %.pn = phi ptr [ %29, %.critedge ], [ %30, %Abc_NodeIsSeriousGate.exit32.thread ]
  %35 = phi i64 [ 0, %.critedge ], [ %33, %Abc_NodeIsSeriousGate.exit32.thread ]
  %36 = getelementptr inbounds nuw i8, ptr %.pn, i64 144
  %37 = getelementptr inbounds nuw [4 x i32], ptr %36, i64 0, i64 %35
  %38 = load i32, ptr %37, align 4
  %39 = tail call fastcc i32 @Bac_ObjAlloc(ptr noundef nonnull %1, i32 noundef 60, i32 noundef %38)
  %40 = tail call fastcc i32 @Bac_ObjAlloc(ptr noundef nonnull %1, i32 noundef 4, i32 noundef -1)
  br label %41

41:                                               ; preds = %Abc_NodeIsSeriousGate.exit32.thread57, %34, %Abc_NodeIsSeriousGate.exit.thread34
  %.0 = phi i32 [ %16, %Abc_NodeIsSeriousGate.exit.thread34 ], [ %28, %Abc_NodeIsSeriousGate.exit32.thread57 ], [ %40, %34 ]
  %42 = getelementptr inbounds nuw i8, ptr %1, i64 96
  %43 = add nsw i32 %2, 1
  tail call fastcc void @Vec_IntFillExtra(ptr noundef nonnull %42, i32 noundef %43, i32 noundef 0)
  %44 = getelementptr i8, ptr %1, i64 104
  %.val.i.i = load ptr, ptr %44, align 8
  %45 = sext i32 %2 to i64
  %46 = getelementptr inbounds i32, ptr %.val.i.i, i64 %45
  store i32 %.0, ptr %46, align 4
  ret void
}